target datalayout = "e-m:e-p270:32:32-p271:32:32-p272:64:64-i64:64-i128:128-f80:128-n8:16:32:64-S128"
target triple = "x86_64-pc-linux-gnu"

%struct.stbi__write_context = type { ptr, ptr, [64 x i8], i32 }

; Function Attrs: nounwind uwtable
define void @stbiw__write_flush(ptr noundef %0) #0 {
  %2 = alloca ptr, align 8
  store ptr %0, ptr %2, align 8, !tbaa !7
  %3 = load ptr, ptr %2, align 8, !tbaa !7
  %4 = getelementptr inbounds nuw %struct.stbi__write_context, ptr %3, i32 0, i32 3
  %5 = load i32, ptr %4, align 8, !tbaa !21
  %6 = icmp ne i32 %5, 0
  br i1 %6, label %7, label %21

7:                                                ; preds = %1
  %8 = load ptr, ptr %2, align 8, !tbaa !7
  %9 = getelementptr inbounds nuw %struct.stbi__write_context, ptr %8, i32 0, i32 0
  %10 = load ptr, ptr %9, align 8, !tbaa !9
  %11 = load ptr, ptr %2, align 8, !tbaa !7
  %12 = getelementptr inbounds nuw %struct.stbi__write_context, ptr %11, i32 0, i32 1
  %13 = load ptr, ptr %12, align 8, !tbaa !11
  %14 = load ptr, ptr %2, align 8, !tbaa !7
  %15 = getelementptr inbounds nuw %struct.stbi__write_context, ptr %14, i32 0, i32 2
  %16 = load ptr, ptr %2, align 8, !tbaa !7
  %17 = getelementptr inbounds nuw %struct.stbi__write_context, ptr %16, i32 0, i32 3
  %18 = load i32, ptr %17, align 8, !tbaa !21
  call void %10(ptr noundef %13, ptr noundef %15, i32 noundef %18)
  %19 = load ptr, ptr %2, align 8, !tbaa !7
  %20 = getelementptr inbounds nuw %struct.stbi__write_context, ptr %19, i32 0, i32 3
  store i32 0, ptr %20, align 8, !tbaa !21
  br label %21

21:                                               ; preds = %7, %1
  ret void
}

; Function Attrs: nounwind uwtable
define void @stbiw__write1(ptr noundef %0, i8 noundef zeroext %1) #0 {
  %3 = alloca ptr, align 8
  %4 = alloca i8, align 1
  store ptr %0, ptr %3, align 8, !tbaa !7
  store i8 %1, ptr %4, align 1, !tbaa !18
  %5 = load ptr, ptr %3, align 8, !tbaa !7
  %6 = getelementptr inbounds nuw %struct.stbi__write_context, ptr %5, i32 0, i32 3
  %7 = load i32, ptr %6, align 8, !tbaa !21
  %8 = sext i32 %7 to i64
  %9 = add i64 %8, 1
  %10 = icmp ugt i64 %9, 64
  br i1 %10, label %11, label %13

11:                                               ; preds = %2
  %12 = load ptr, ptr %3, align 8, !tbaa !7
  call void @stbiw__write_flush(ptr noundef %12)
  br label %13

13:                                               ; preds = %11, %2
  %14 = load i8, ptr %4, align 1, !tbaa !18
  %15 = load ptr, ptr %3, align 8, !tbaa !7
  %16 = getelementptr inbounds nuw %struct.stbi__write_context, ptr %15, i32 0, i32 2
  %17 = load ptr, ptr %3, align 8, !tbaa !7
  %18 = getelementptr inbounds nuw %struct.stbi__write_context, ptr %17, i32 0, i32 3
  %19 = load i32, ptr %18, align 8, !tbaa !21
  %20 = add nsw i32 %19, 1
  store i32 %20, ptr %18, align 8, !tbaa !21
  %21 = sext i32 %19 to i64
  %22 = getelementptr inbounds [64 x i8], ptr %16, i64 0, i64 %21
  store i8 %14, ptr %22, align 1, !tbaa !18
  ret void
}