; Function Attrs: nounwind uwtable
define void @stbiw__write1(ptr noundef %0, i8 noundef zeroext %1) local_unnamed_addr #5 {
  %3 = getelementptr inbounds nuw i8, ptr %0, i64 80
  %4 = load i32, ptr %3, align 8, !tbaa !14
  %5 = sext i32 %4 to i64
  %6 = add nsw i64 %5, 1
  %7 = icmp ult i64 %6, 65
  br i1 %7, label %stbiw__write_flush.exit, label %8

8:                                                ; preds = %2
  %9 = load ptr, ptr %0, align 8, !tbaa !7
  %10 = getelementptr inbounds nuw i8, ptr %0, i64 8
  %11 = load ptr, ptr %10, align 8, !tbaa !10
  %12 = getelementptr inbounds nuw i8, ptr %0, i64 16
  tail call void %9(ptr noundef %11, ptr noundef nonnull %12, i32 noundef %4) #26
  br label %stbiw__write_flush.exit

stbiw__write_flush.exit:                          ; preds = %8, %2
  %13 = phi i32 [ 0, %8 ], [ %4, %2 ]
  %14 = getelementptr inbounds nuw i8, ptr %0, i64 16
  %15 = add nsw i32 %13, 1
  store i32 %15, ptr %3, align 8, !tbaa !14
  %16 = sext i32 %13 to i64
  %17 = getelementptr inbounds [64 x i8], ptr %14, i64 0, i64 %16
  store i8 %1, ptr %17, align 1, !tbaa !11
  ret void
}